; ModuleID = 'source-C-CXX/36/1808.cpp'
source_filename = "source-C-CXX/36/1808.cpp"
target datalayout = "e-m:e-p270:32:32-p271:32:32-p272:64:64-i64:64-f80:128-n8:16:32:64-S128"
target triple = "x86_64-pc-linux-gnu"

%"class.std::ios_base::Init" = type { i8 }
%"class.std::basic_istream" = type { i32 (...)**, i64, %"class.std::basic_ios" }
%"class.std::basic_ios" = type { %"class.std::ios_base", %"class.std::basic_ostream"*, i8, i8, %"class.std::basic_streambuf"*, %"class.std::ctype"*, %"class.std::num_put"*, %"class.std::num_get"* }
%"class.std::ios_base" = type { i32 (...)**, i64, i64, i32, i32, i32, %"struct.std::ios_base::_Callback_list"*, %"struct.std::ios_base::_Words", [8 x %"struct.std::ios_base::_Words"], i32, %"struct.std::ios_base::_Words"*, %"class.std::locale" }
%"struct.std::ios_base::_Callback_list" = type { %"struct.std::ios_base::_Callback_list"*, void (i32, %"class.std::ios_base"*, i32)*, i32, i32 }
%"struct.std::ios_base::_Words" = type { i8*, i64 }
%"class.std::locale" = type { %"class.std::locale::_Impl"* }
%"class.std::locale::_Impl" = type { i32, %"class.std::locale::facet"**, i64, %"class.std::locale::facet"**, i8** }
%"class.std::locale::facet" = type <{ i32 (...)**, i32, [4 x i8] }>
%"class.std::basic_ostream" = type { i32 (...)**, %"class.std::basic_ios" }
%"class.std::basic_streambuf" = type { i32 (...)**, i8*, i8*, i8*, i8*, i8*, i8*, %"class.std::locale" }
%"class.std::ctype" = type <{ %"class.std::locale::facet.base", [4 x i8], %struct.__locale_struct*, i8, [7 x i8], i32*, i32*, i16*, i8, [256 x i8], [256 x i8], i8, [6 x i8] }>
%"class.std::locale::facet.base" = type <{ i32 (...)**, i32 }>
%struct.__locale_struct = type { [13 x %struct.__locale_data*], i16*, i32*, i32*, [13 x i8*] }
%struct.__locale_data = type opaque
%"class.std::num_put" = type { %"class.std::locale::facet.base", [4 x i8] }
%"class.std::num_get" = type { %"class.std::locale::facet.base", [4 x i8] }

@_ZStL8__ioinit = internal global %"class.std::ios_base::Init" zeroinitializer, align 1
@__dso_handle = external hidden global i8
@_ZSt3cin = external global %"class.std::basic_istream", align 8
@_ZSt4cout = external global %"class.std::basic_ostream", align 8
@.str = private unnamed_addr constant [3 x i8] c"no\00", align 1
@llvm.global_ctors = appending global [1 x { i32, void ()*, i8* }] [{ i32, void ()*, i8* } { i32 65535, void ()* @_GLOBAL__sub_I_1808.cpp, i8* null }]

declare void @_ZNSt8ios_base4InitC1Ev(%"class.std::ios_base::Init"* nonnull align 1 dereferenceable(1)) unnamed_addr #0

; Function Attrs: nounwind
declare void @_ZNSt8ios_base4InitD1Ev(%"class.std::ios_base::Init"* nonnull align 1 dereferenceable(1)) unnamed_addr #1

; Function Attrs: nofree nounwind
declare i32 @__cxa_atexit(void (i8*)*, i8*, i8*) local_unnamed_addr #2

; Function Attrs: mustprogress norecurse sspstrong uwtable
define dso_local i32 @main() local_unnamed_addr #3 {
  %1 = alloca i8, align 1
  %2 = alloca i32, align 4
  %3 = alloca [100009 x i8], align 16
  %4 = bitcast i32* %2 to i8*
  call void @llvm.lifetime.start.p0i8(i64 4, i8* nonnull %4) #8
  %5 = getelementptr inbounds [100009 x i8], [100009 x i8]* %3, i64 0, i64 0
  call void @llvm.lifetime.start.p0i8(i64 100009, i8* nonnull %5) #8
  %6 = call nonnull align 8 dereferenceable(16) %"class.std::basic_istream"* @_ZNSirsERi(%"class.std::basic_istream"* nonnull align 8 dereferenceable(16) @_ZSt3cin, i32* nonnull align 4 dereferenceable(4) %2)
  %7 = load i32, i32* %2, align 4, !tbaa !5
  %8 = icmp slt i32 %7, 1
  br i1 %8, label %108, label %9

9:                                                ; preds = %0, %104
  %10 = phi i32 [ %105, %104 ], [ 1, %0 ]
  call void @_ZSt17__istream_extractRSiPcl(%"class.std::basic_istream"* nonnull align 8 dereferenceable(16) @_ZSt3cin, i8* nonnull %5, i64 100009)
  %11 = call i64 @strlen(i8* noundef nonnull %5) #9
  %12 = trunc i64 %11 to i32
  %13 = icmp sgt i32 %12, 0
  br i1 %13, label %14, label %104

14:                                               ; preds = %9
  %15 = add i64 %11, 4294967295
  %16 = and i64 %15, 4294967295
  %17 = and i64 %11, 4294967295
  br label %18

18:                                               ; preds = %14, %99
  %19 = phi i64 [ 0, %14 ], [ %100, %99 ]
  %20 = getelementptr inbounds [100009 x i8], [100009 x i8]* %3, i64 0, i64 %19
  br label %21

21:                                               ; preds = %18, %62
  %22 = phi i64 [ 0, %18 ], [ %64, %62 ]
  %23 = phi i32 [ 0, %18 ], [ %63, %62 ]
  %24 = load i8, i8* %20, align 1, !tbaa !9
  %25 = getelementptr inbounds [100009 x i8], [100009 x i8]* %3, i64 0, i64 %22
  %26 = load i8, i8* %25, align 1, !tbaa !9
  %27 = icmp eq i8 %24, %26
  %28 = icmp ne i64 %19, %22
  %29 = and i1 %28, %27
  br i1 %29, label %66, label %30

30:                                               ; preds = %21
  %31 = icmp eq i64 %22, %16
  br i1 %31, label %32, label %62

32:                                               ; preds = %30
  call void @llvm.lifetime.start.p0i8(i64 1, i8* nonnull %1)
  store i8 %24, i8* %1, align 1, !tbaa !9
  %33 = call nonnull align 8 dereferenceable(8) %"class.std::basic_ostream"* @_ZSt16__ostream_insertIcSt11char_traitsIcEERSt13basic_ostreamIT_T0_ES6_PKS3_l(%"class.std::basic_ostream"* nonnull align 8 dereferenceable(8) @_ZSt4cout, i8* nonnull %1, i64 1)
  call void @llvm.lifetime.end.p0i8(i64 1, i8* nonnull %1)
  %34 = bitcast %"class.std::basic_ostream"* %33 to i8**
  %35 = load i8*, i8** %34, align 8, !tbaa !10
  %36 = getelementptr i8, i8* %35, i64 -24
  %37 = bitcast i8* %36 to i64*
  %38 = load i64, i64* %37, align 8
  %39 = bitcast %"class.std::basic_ostream"* %33 to i8*
  %40 = add nsw i64 %38, 240
  %41 = getelementptr inbounds i8, i8* %39, i64 %40
  %42 = bitcast i8* %41 to %"class.std::ctype"**
  %43 = load %"class.std::ctype"*, %"class.std::ctype"** %42, align 8, !tbaa !12
  %44 = icmp eq %"class.std::ctype"* %43, null
  br i1 %44, label %102, label %45

45:                                               ; preds = %32
  %46 = getelementptr inbounds %"class.std::ctype", %"class.std::ctype"* %43, i64 0, i32 8
  %47 = load i8, i8* %46, align 8, !tbaa !16
  %48 = icmp eq i8 %47, 0
  br i1 %48, label %52, label %49

49:                                               ; preds = %45
  %50 = getelementptr inbounds %"class.std::ctype", %"class.std::ctype"* %43, i64 0, i32 9, i64 10
  %51 = load i8, i8* %50, align 1, !tbaa !9
  br label %58

52:                                               ; preds = %45
  call void @_ZNKSt5ctypeIcE13_M_widen_initEv(%"class.std::ctype"* nonnull align 8 dereferenceable(570) %43)
  %53 = bitcast %"class.std::ctype"* %43 to i8 (%"class.std::ctype"*, i8)***
  %54 = load i8 (%"class.std::ctype"*, i8)**, i8 (%"class.std::ctype"*, i8)*** %53, align 8, !tbaa !10
  %55 = getelementptr inbounds i8 (%"class.std::ctype"*, i8)*, i8 (%"class.std::ctype"*, i8)** %54, i64 6
  %56 = load i8 (%"class.std::ctype"*, i8)*, i8 (%"class.std::ctype"*, i8)** %55, align 8
  %57 = call signext i8 %56(%"class.std::ctype"* nonnull align 8 dereferenceable(570) %43, i8 signext 10)
  br label %58

58:                                               ; preds = %52, %49
  %59 = phi i8 [ %51, %49 ], [ %57, %52 ]
  %60 = call nonnull align 8 dereferenceable(8) %"class.std::basic_ostream"* @_ZNSo3putEc(%"class.std::basic_ostream"* nonnull align 8 dereferenceable(8) %33, i8 signext %59)
  %61 = call nonnull align 8 dereferenceable(8) %"class.std::basic_ostream"* @_ZNSo5flushEv(%"class.std::basic_ostream"* nonnull align 8 dereferenceable(8) %60)
  br label %62

62:                                               ; preds = %58, %30
  %63 = phi i32 [ 1, %58 ], [ %23, %30 ]
  %64 = add nuw nsw i64 %22, 1
  %65 = icmp eq i64 %64, %17
  br i1 %65, label %66, label %21, !llvm.loop !18

66:                                               ; preds = %62, %21
  %67 = phi i32 [ %23, %21 ], [ %63, %62 ]
  %68 = icmp eq i32 %67, 0
  br i1 %68, label %69, label %104

69:                                               ; preds = %66
  %70 = icmp eq i64 %19, %16
  br i1 %70, label %71, label %99

71:                                               ; preds = %69
  %72 = call nonnull align 8 dereferenceable(8) %"class.std::basic_ostream"* @_ZSt16__ostream_insertIcSt11char_traitsIcEERSt13basic_ostreamIT_T0_ES6_PKS3_l(%"class.std::basic_ostream"* nonnull align 8 dereferenceable(8) @_ZSt4cout, i8* nonnull getelementptr inbounds ([3 x i8], [3 x i8]* @.str, i64 0, i64 0), i64 2)
  %73 = load i8*, i8** bitcast (%"class.std::basic_ostream"* @_ZSt4cout to i8**), align 8, !tbaa !10
  %74 = getelementptr i8, i8* %73, i64 -24
  %75 = bitcast i8* %74 to i64*
  %76 = load i64, i64* %75, align 8
  %77 = add nsw i64 %76, 240
  %78 = getelementptr inbounds i8, i8* bitcast (%"class.std::basic_ostream"* @_ZSt4cout to i8*), i64 %77
  %79 = bitcast i8* %78 to %"class.std::ctype"**
  %80 = load %"class.std::ctype"*, %"class.std::ctype"** %79, align 8, !tbaa !12
  %81 = icmp eq %"class.std::ctype"* %80, null
  br i1 %81, label %103, label %82

82:                                               ; preds = %71
  %83 = getelementptr inbounds %"class.std::ctype", %"class.std::ctype"* %80, i64 0, i32 8
  %84 = load i8, i8* %83, align 8, !tbaa !16
  %85 = icmp eq i8 %84, 0
  br i1 %85, label %89, label %86

86:                                               ; preds = %82
  %87 = getelementptr inbounds %"class.std::ctype", %"class.std::ctype"* %80, i64 0, i32 9, i64 10
  %88 = load i8, i8* %87, align 1, !tbaa !9
  br label %95

89:                                               ; preds = %82
  call void @_ZNKSt5ctypeIcE13_M_widen_initEv(%"class.std::ctype"* nonnull align 8 dereferenceable(570) %80)
  %90 = bitcast %"class.std::ctype"* %80 to i8 (%"class.std::ctype"*, i8)***
  %91 = load i8 (%"class.std::ctype"*, i8)**, i8 (%"class.std::ctype"*, i8)*** %90, align 8, !tbaa !10
  %92 = getelementptr inbounds i8 (%"class.std::ctype"*, i8)*, i8 (%"class.std::ctype"*, i8)** %91, i64 6
  %93 = load i8 (%"class.std::ctype"*, i8)*, i8 (%"class.std::ctype"*, i8)** %92, align 8
  %94 = call signext i8 %93(%"class.std::ctype"* nonnull align 8 dereferenceable(570) %80, i8 signext 10)
  br label %95

95:                                               ; preds = %89, %86
  %96 = phi i8 [ %88, %86 ], [ %94, %89 ]
  %97 = call nonnull align 8 dereferenceable(8) %"class.std::basic_ostream"* @_ZNSo3putEc(%"class.std::basic_ostream"* nonnull align 8 dereferenceable(8) @_ZSt4cout, i8 signext %96)
  %98 = call nonnull align 8 dereferenceable(8) %"class.std::basic_ostream"* @_ZNSo5flushEv(%"class.std::basic_ostream"* nonnull align 8 dereferenceable(8) %97)
  br label %99

99:                                               ; preds = %95, %69
  %100 = add nuw nsw i64 %19, 1
  %101 = icmp eq i64 %100, %17
  br i1 %101, label %104, label %18, !llvm.loop !20

102:                                              ; preds = %32
  call void @_ZSt16__throw_bad_castv() #10
  unreachable

103:                                              ; preds = %71
  call void @_ZSt16__throw_bad_castv() #10
  unreachable

104:                                              ; preds = %99, %66, %9
  %105 = add nuw nsw i32 %10, 1
  %106 = load i32, i32* %2, align 4, !tbaa !5
  %107 = icmp slt i32 %10, %106
  br i1 %107, label %9, label %108, !llvm.loop !21

108:                                              ; preds = %104, %0
  call void @llvm.lifetime.end.p0i8(i64 100009, i8* nonnull %5) #8
  call void @llvm.lifetime.end.p0i8(i64 4, i8* nonnull %4) #8
  ret i32 0
}

; Function Attrs: argmemonly mustprogress nofree nosync nounwind willreturn
declare void @llvm.lifetime.start.p0i8(i64 immarg, i8* nocapture) #4

declare nonnull align 8 dereferenceable(16) %"class.std::basic_istream"* @_ZNSirsERi(%"class.std::basic_istream"* nonnull align 8 dereferenceable(16), i32* nonnull align 4 dereferenceable(4)) local_unnamed_addr #0

; Function Attrs: argmemonly mustprogress nofree nounwind readonly willreturn
declare i64 @strlen(i8* nocapture) local_unnamed_addr #5

; Function Attrs: argmemonly mustprogress nofree nosync nounwind willreturn
declare void @llvm.lifetime.end.p0i8(i64 immarg, i8* nocapture) #4

declare void @_ZSt17__istream_extractRSiPcl(%"class.std::basic_istream"* nonnull align 8 dereferenceable(16), i8*, i64) local_unnamed_addr #0

declare nonnull align 8 dereferenceable(8) %"class.std::basic_ostream"* @_ZSt16__ostream_insertIcSt11char_traitsIcEERSt13basic_ostreamIT_T0_ES6_PKS3_l(%"class.std::basic_ostream"* nonnull align 8 dereferenceable(8), i8*, i64) local_unnamed_addr #0

declare nonnull align 8 dereferenceable(8) %"class.std::basic_ostream"* @_ZNSo3putEc(%"class.std::basic_ostream"* nonnull align 8 dereferenceable(8), i8 signext) local_unnamed_addr #0

declare nonnull align 8 dereferenceable(8) %"class.std::basic_ostream"* @_ZNSo5flushEv(%"class.std::basic_ostream"* nonnull align 8 dereferenceable(8)) local_unnamed_addr #0

; Function Attrs: noreturn
declare void @_ZSt16__throw_bad_castv() local_unnamed_addr #6

declare void @_ZNKSt5ctypeIcE13_M_widen_initEv(%"class.std::ctype"* nonnull align 8 dereferenceable(570)) local_unnamed_addr #0

; Function Attrs: sspstrong uwtable
define internal void @_GLOBAL__sub_I_1808.cpp() #7 section ".text.startup" {
  tail call void @_ZNSt8ios_base4InitC1Ev(%"class.std::ios_base::Init"* nonnull align 1 dereferenceable(1) @_ZStL8__ioinit)
  %1 = tail call i32 @__cxa_atexit(void (i8*)* bitcast (void (%"class.std::ios_base::Init"*)* @_ZNSt8ios_base4InitD1Ev to void (i8*)*), i8* getelementptr inbounds (%"class.std::ios_base::Init", %"class.std::ios_base::Init"* @_ZStL8__ioinit, i64 0, i32 0), i8* nonnull @__dso_handle) #8
  ret void
}


!llvm.module.flags = !{!0, !1, !2, !3}
!llvm.ident = !{!4}

!0 = !{i32 1, !"wchar_size", i32 4}
!1 = !{i32 7, !"PIC Level", i32 2}
!2 = !{i32 7, !"PIE Level", i32 2}
!3 = !{i32 7, !"uwtable", i32 1}
!4 = !{!"clang version 13.0.0"}
!5 = !{!6, !6, i64 0}
!6 = !{!"int", !7, i64 0}
!7 = !{!"omnipotent char", !8, i64 0}
!8 = !{!"Simple C++ TBAA"}
!9 = !{!7, !7, i64 0}
!10 = !{!11, !11, i64 0}
!11 = !{!"vtable pointer", !8, i64 0}
!12 = !{!13, !14, i64 240}
!13 = !{!"_ZTSSt9basic_iosIcSt11char_traitsIcEE", !14, i64 216, !7, i64 224, !15, i64 225, !14, i64 232, !14, i64 240, !14, i64 248, !14, i64 256}
!14 = !{!"any pointer", !7, i64 0}
!15 = !{!"bool", !7, i64 0}
!16 = !{!17, !7, i64 56}
!17 = !{!"_ZTSSt5ctypeIcE", !14, i64 16, !15, i64 24, !14, i64 32, !14, i64 40, !14, i64 48, !7, i64 56, !7, i64 57, !7, i64 313, !7, i64 569}
!18 = distinct !{!18, !19}
!19 = !{!"llvm.loop.mustprogress"}
!20 = distinct !{!20, !19}
!21 = distinct !{!21, !19}
